; Function Attrs: mustprogress uwtable
define hidden void @_ZN3mbp10term_graph7add_varEP3app(ptr noundef nonnull align 8 dereferenceable(244) %0, ptr noundef readonly captures(none) %1) local_unnamed_addr #3 align 2 {
  %3 = alloca ptr, align 8
  %4 = getelementptr inbounds nuw i8, ptr %0, i64 176
  call void @llvm.lifetime.start.p0(i64 8, ptr nonnull %3) #27
  %5 = getelementptr inbounds nuw i8, ptr %1, i64 16
  %6 = load ptr, ptr %5, align 8, !tbaa !48
  store ptr %6, ptr %3, align 8, !tbaa !83
  call void @_ZN14core_hashtableI14obj_hash_entryI9func_declE12obj_ptr_hashIS1_E6ptr_eqIS1_EE6insertEOPS1_(ptr noundef nonnull align 8 dereferenceable(20) %4, ptr noundef nonnull align 8 dereferenceable(8) %3)
  call void @llvm.lifetime.end.p0(i64 8, ptr nonnull %3) #27
  ret void
}